(dp1
S'1DLJ-005_012-0279_0303_A-0279_0303_B'
p2
(S'1_21'
S'4_24'
tp3
sS'1K8K-022_024-0004_0019_F-0128_0167_F'
p4
(S'1_21'
S'30_50'
tp5
sS'1W27-008_024-0403_0431_A-0403_0431_B'
p6
(S'1_21'
S'6_26'
tp7
sS'2GYQ-007_008-0080_0095_B-0099_0131_B'
p8
(S'5_21'
S'17_33'
tp9
sS'1LS1-001_002-0024_0041_A-0045_0062_A'
p10
(S'4_21'
S'1_18'
tp11
sS'1K7W-005_027-0239_0266_A-0239_0266_C'
p12
(S'1_20'
S'37_56'
tp13
sS'2HHP-008_009-0372_0395_A-0481_0495_A'
p14
(S'5_21'
S'1_17'
tp15
sS'1GKM-047_008-0331_0360_D_0331_0360_A'
p16
(S'1_21'
S'33_53'
tp17
sS'1DCI-021_022-0268_0283_D-0286_0301_D'
p18
(S'4_20'
S'1_17'
tp19
sS'2PTR-020_045-0252_0281_B-0252_0281_D'
p20
(S'1_21'
S'9_29'
tp21
sS'1R1H-006_008-0265_0285_A-0348_0359_A'
p22
(S'1_21'
S'1_21'
tp23
sS'1SUM-005_002-0174_0209_A_0075_0109_A'
p24
(S'1_19'
S'53_71'
tp25
sS'1DOW-003_006-0146_0166_A-0235_0260_A'
p26
(S'1_21'
S'25_45'
tp27
sS'2QFA-001_000-0016_0060_B_0098_0140_A'
p28
(S'1_21'
S'55_75'
tp29
sS'1RKT-008_011-0084_0100_B-0185_0200_B'
p30
(S'3_19'
S'1_17'
tp31
sS'3D3B-003_004-0079_0094_A-0100_0114_A'
p32
(S'5_21'
S'1_17'
tp33
sS'2H8O-005_007-0175_0189_A-0211_0237_A'
p34
(S'2_18'
S'26_42'
tp35
sS'1N7O-012_001-0520_0531_A_0196_0215_A'
p36
(S'2_21'
S'1_20'
tp37
sS'3BYV-004_003-0483_0498_A_0392_0416_A'
p38
(S'3_21'
S'1_19'
tp39
sS'1EPW-007_008-0674_0739_A-0752_0816_A'
p40
(S'1_21'
S'33_53'
tp41
sS'1XVH-004_005-0097_0109_A-0113_0127_A'
p42
(S'2_17'
S'13_28'
tp43
sS'1MC2-002_001-1090_1112_A_1040_1053_A'
p44
(S'3_21'
S'15_33'
tp45
sS'1T5O-009_008-0092_0107_B_0070_0087_B'
p46
(S'1_17'
S'3_19'
tp47
sS'2GM6-001_000-0032_0048_A_0012_0028_A'
p48
(S'4_21'
S'1_18'
tp49
sS'3BNE-007_011-0609_0632_A-0776_0801_A'
p50
(S'4_21'
S'25_42'
tp51
sS'1AH7-007_005-0206_0242_A_0172_0189_A'
p52
(S'2_21'
S'29_48'
tp53
sS'3BHY-002_001-0196_0212_A_0113_0133_A'
p54
(S'3_19'
S'22_38'
tp55
sS'1XG0-008_009-0124_0142_D-0158_0176_D'
p56
(S'2_21'
S'1_20'
tp57
sS'1MXR-007_006-0301_0319_A_0259_0292_A'
p58
(S'3_21'
S'10_28'
tp59
sS'1B9M-003_001-0080_0104_B_0080_0105_A'
p60
(S'1_21'
S'7_27'
tp61
sS'3FGH-005_002-0152_0175_B_0152_0175_A'
p62
(S'1_18'
S'31_48'
tp63
sS'1X8B-003_002-0495_0511_A_0400_0420_A'
p64
(S'4_20'
S'22_38'
tp65
sS'1RDQ-003_002-0217_0233_A_0140_0160_A'
p66
(S'2_21'
S'1_20'
tp67
sS'2C30-002_001-0580_0596_A_0500_0520_A'
p68
(S'2_21'
S'1_20'
tp69
sS'1W27-011_010-0560_0572_A_0494_0548_A'
p70
(S'1_21'
S'24_44'
tp71
sS'1IT2-005_004-0129_0145_A_0111_0125_A'
p72
(S'3_19'
S'16_32'
tp73
sS'1GS9-002_003-0088_0124_A-0130_0163_A'
p74
(S'1_21'
S'18_38'
tp75
sS'1K8K-017_024-0236_0280_D-0128_0167_F'
p76
(S'1_21'
S'59_79'
tp77
sS'1IE9-001_000-0226_0247_A_0126_0142_A'
p78
(S'5_21'
S'1_17'
tp79
sS'2PV7-010_003-0254_0272_B_0254_0271_A'
p80
(S'5_21'
S'21_37'
tp81
sS'1XLY-001_007-0049_0071_A-0093_0129_B'
p82
(S'1_21'
S'3_23'
tp83
sS'2HKV-003_001-0113_0138_A_0042_0061_A'
p84
(S'1_21'
S'25_45'
tp85
sS'2H8O-010_009-0318_0331_A_0295_0316_A'
p86
(S'3_21'
S'1_19'
tp87
sS'3G7R-002_004-0087_0103_A-0176_0195_A'
p88
(S'2_21'
S'18_37'
tp89
sS'1NQ7-001_000-0255_0279_A_0209_0226_A'
p90
(S'1_18'
S'26_43'
tp91
sS'1B4F-000_001-0057_0078_A-0057_0079_B'
p92
(S'1_21'
S'25_45'
tp93
sS'3BG2-060_061-0244_0268_F-0299_0331_F'
p94
(S'4_21'
S'26_43'
tp95
sS'2HYT-008_011-0084_0096_B-0173_0191_B'
p96
(S'2_20'
S'14_32'
tp97
sS'1I36-003_011-0154_0183_A-0154_0183_B'
p98
(S'1_21'
S'34_54'
tp99
sS'2QIS-005_007-0165_0191_A-0216_0231_A'
p100
(S'1_21'
S'6_26'
tp101
sS'1KP8-202_191-0434_0447_N_0089_0109_N'
p102
(S'5_21'
S'1_17'
tp103
sS'2QFA-002_001-0008_0045_C_0016_0060_B'
p104
(S'1_21'
S'12_32'
tp105
sS'2OFK-002_000-0089_0108_A_0028_0041_A'
p106
(S'1_20'
S'15_34'
tp107
sS'2O4T-000_001-0025_0041_A-0046_0066_A'
p108
(S'1_18'
S'21_38'
tp109
sS'2BKM-003_002-0106_0122_A_0084_0101_A'
p110
(S'5_21'
S'1_17'
tp111
sS'3CSX-003_000-0046_0074_B_0017_0041_A'
p112
(S'1_21'
S'33_53'
tp113
sS'2QM8-016_017-0296_0311_B-0316_0328_B'
p114
(S'2_18'
S'1_17'
tp115
sS'1JNR-010_009-0540_0558_A_0514_0528_A'
p116
(S'3_21'
S'16_34'
tp117
sS'2WTG-004_005-0108_0123_A-0130_0154_A'
p118
(S'1_21'
S'19_39'
tp119
sS'3BNY-007_016-0256_0284_A-0256_0284_B'
p120
(S'1_20'
S'39_58'
tp121
sS'3FWN-017_021-0177_0208_B-0314_0347_B'
p122
(S'1_21'
S'6_26'
tp123
sS'1PQ1-002_003-0116_0132_A-0137_0157_A'
p124
(S'4_21'
S'18_35'
tp125
sS'1MTY-001_005-0064_0083_A-0231_0258_A'
p126
(S'3_19'
S'32_48'
tp127
sS'1HW1-007_006-0206_0229_A_0183_0202_A'
p128
(S'3_21'
S'1_19'
tp129
sS'1FPO-000_001-0017_0031_A-0041_0062_A'
p130
(S'3_21'
S'16_34'
tp131
sS'df1L13G_HTH-1_28'
p132
(S'1_21'
p133
S'22_42'
p134
tp135
sS'3F6F-009_001-0088_0118_B_0066_0077_A'
p136
(S'2_19'
S'13_30'
tp137
sS'3BQY-005_003-0201_0219_A_0139_0164_A'
p138
(S'4_21'
S'27_44'
tp139
sS'1R0D-004_005-0900_0923_A-0932_0964_A'
p140
(S'1_21'
S'2_22'
tp141
sS'2QHN-001_000-0186_0203_A_0104_0124_A'
p142
(S'1_18'
S'22_39'
tp143
sS'1SFX-003_007-0082_0101_A-0082_0101_B'
p144
(S'4_21'
S'1_18'
tp145
sS'2QLU-002_001-0378_0399_A_0284_0302_A'
p146
(S'1_19'
S'23_41'
tp147
sS'1SFX-003_000-0082_0101_A_0004_0015_A'
p148
(S'4_21'
S'13_30'
tp149
sS'1SQG-003_004-0073_0090_A-0095_0109_A'
p150
(S'3_20'
S'2_19'
tp151
sS'2Z0A-000_003-0003_0025_A-0003_0025_B'
p152
(S'1_19'
S'28_46'
tp153
sS'1K7W-022_023-0029_0054_C-0059_0078_C'
p154
(S'2_21'
S'27_46'
tp155
sS'2QIS-003_007-0093_0121_A-0216_0231_A'
p156
(S'1_21'
S'1_21'
tp157
sS'2NRL-003_004-0097_0115_A-0119_0143_A'
p158
(S'1_19'
S'26_44'
tp159
sS'1R1H-013_014-0434_0456_A-0462_0474_A'
p160
(S'3_21'
S'1_19'
tp161
sS'2W72-010_011-0100_0118_B-0124_0143_B'
p162
(S'2_21'
S'20_39'
tp163
sS'1N5U-006_005-0174_0206_A_0151_0169_A'
p164
(S'2_21'
S'1_20'
tp165
sS'1VDK-033_004-0197_0223_D_0197_0223_A'
p166
(S'1_21'
S'2_22'
tp167
sS'2W5A-003_002-0195_0211_A_0110_0130_A'
p168
(S'5_21'
S'22_38'
tp169
sS'1HW1-010_015-0093_0119_B-0206_0229_B'
p170
(S'5_21'
S'1_17'
tp171
sS'1W53-007_002-0064_0083_B_0044_0058_A'
p172
(S'3_21'
S'16_34'
tp173
sS'1OJ7-003_014-0211_0233_A-0211_0233_B'
p174
(S'5_21'
S'1_17'
tp175
sS'2RDC-005_001-0037_0058_B_0037_0058_A'
p176
(S'3_21'
S'1_19'
tp177
sS'3BB0-001_000-0047_0067_A_0022_0040_A'
p178
(S'3_21'
S'1_19'
tp179
sS'1YMT-002_004-0292_0318_A-0366_0379_A'
p180
(S'5_21'
S'11_27'
tp181
sS'1VDK-006_035-0272_0299_A-0272_0299_D'
p182
(S'1_21'
S'6_26'
tp183
sS'1LWB-003_002-0102_0121_A_0077_0098_A'
p184
(S'5_21'
S'23_39'
tp185
sS'1LWB-001_002-0057_0074_A-0077_0098_A'
p186
(S'1_17'
S'24_40'
tp187
sS'1K8K-020_021-0088_0100_E-0123_0148_E'
p188
(S'3_21'
S'14_32'
tp189
sS'1P7T-007_001-0396_0413_A_0032_0070_A'
p190
(S'4_21'
S'40_57'
tp191
sS'2VKE-006_004-0183_0203_A_0127_0154_A'
p192
(S'2_21'
S'29_48'
tp193
sS'2FBQ-002_006-0086_0099_A-0192_0208_A'
p194
(S'2_18'
S'15_31'
tp195
sS'3G1M-001_002-0068_0092_A-0099_0116_A'
p196
(S'4_21'
S'1_18'
tp197
sS'1U84-003_000-0065_0082_A_0004_0017_A'
p198
(S'2_19'
S'15_32'
tp199
sS'2BIK-001_000-0220_0237_A_0141_0161_A'
p200
(S'1_18'
S'22_39'
tp201
sS'2FBQ-006_005-0192_0208_A_0154_0185_A'
p202
(S'5_21'
S'1_17'
tp203
sS'2H8O-000_001-0034_0058_A-0071_0084_A'
p204
(S'5_21'
S'1_17'
tp205
sS'1K3Y-009_001-0086_0111_B_0068_0079_A'
p206
(S'1_21'
S'15_35'
tp207
sS'2IBD-001_002-0063_0083_A-0087_0104_A'
p208
(S'1_17'
S'23_39'
tp209
sS'1QMG-009_004-0462_0482_A_0325_0341_A'
p210
(S'1_21'
S'18_38'
tp211
sS'1N5U-014_015-0420_0439_A-0442_0464_A'
p212
(S'3_21'
S'1_19'
tp213
sS'1LFP-006_003-0212_0227_A_0106_0120_A'
p214
(S'4_19'
S'16_31'
tp215
sS'3BVF-001_026-0037_0064_A-0037_0064_F'
p216
(S'1_21'
S'5_25'
tp217
sS'3DR9-003_002-0117_0134_A_0094_0110_A'
p218
(S'5_21'
S'1_17'
tp219
sS'1HBN-020_019-0299_0321_B_0265_0279_B'
p220
(S'2_21'
S'16_35'
tp221
sS'1LS1-000_001-0003_0015_A-0024_0041_A'
p222
(S'4_21'
S'14_31'
tp223
sS'2R3I-002_001-0182_0198_A_0101_0121_A'
p224
(S'5_21'
S'1_17'
tp225
sS'1DLW-002_003-0075_0092_A-0096_0113_A'
p226
(S'1_19'
S'1_19'
tp227
sS'1F5N-007_006-0379_0424_A_0350_0371_A'
p228
(S'1_21'
S'25_45'
tp229
sS'1YAR-006_035-0082_0103_B-0049_0070_H'
p230
(S'3_21'
S'1_19'
tp231
sS'3F61-002_001-0195_0211_A_0112_0132_A'
p232
(S'2_18'
S'22_38'
tp233
sS'2EW2-007_008-0180_0193_B-0214_0233_B'
p234
(S'3_21'
S'15_33'
tp235
sS'1F5N-007_010-0379_0424_A-0484_0563_A'
p236
(S'3_21'
S'47_65'
tp237
sS'3BVF-013_014-0114_0144_C-0150_0165_C'
p238
(S'1_21'
S'9_29'
tp239
sS'2QOL-002_001-0803_0819_A_0720_0740_A'
p240
(S'1_19'
S'4_22'
tp241
sS'3BHQ-002_001-0089_0101_A_0055_0083_A'
p242
(S'5_21'
S'1_17'
tp243
sS'3BNY-005_001-0179_0192_A_0075_0094_A'
p244
(S'4_21'
S'1_18'
tp245
sS'2IZR-001_002-0136_0156_A-0228_0244_A'
p246
(S'4_20'
S'22_38'
tp247
sS'2PBP-008_007-0220_0235_B_0202_0217_B'
p248
(S'3_19'
S'1_17'
tp249
sS'3DHZ-009_008-0256_0275_A_0222_0254_A'
p250
(S'5_21'
S'1_17'
tp251
sS'1F5N-000_004-0110_0122_A-0290_0306_A'
p252
(S'5_21'
S'14_30'
tp253
sS'1FCY-001_000-0224_0247_A_0184_0200_A'
p254
(S'1_19'
S'23_41'
tp255
sS'1VKE-030_031-0077_0091_F-0093_0115_F'
p256
(S'2_21'
S'18_37'
tp257
sS'1OJ7-008_006-0319_0337_A_0281_0297_A'
p258
(S'3_21'
S'18_36'
tp259
sS'1YOZ-001_002-0040_0060_A-0065_0096_A'
p260
(S'4_21'
S'1_18'
tp261
sS'2QUP-001_002-0063_0089_A-0098_0120_A'
p262
(S'4_21'
S'28_45'
tp263
sS'3BB0-003_000-0131_0147_A_0022_0040_A'
p264
(S'3_21'
S'1_19'
tp265
sS'2HYT-010_011-0149_0169_B-0173_0191_B'
p266
(S'4_21'
S'1_18'
tp267
sS'2NR7-005_004-0175_0191_A_0131_0161_A'
p268
(S'5_21'
S'1_17'
tp269
sS'2QUP-000_003-0027_0060_A-0126_0144_A'
p270
(S'5_21'
S'1_17'
tp271
sS'1YNB-007_000-0039_0057_B_0008_0022_A'
p272
(S'2_20'
S'16_34'
tp273
sS'1Q8C-004_003-0120_0134_A_0100_0116_A'
p274
(S'5_21'
S'1_17'
tp275
sS'3B40-003_004-0307_0320_A-0344_0360_A'
p276
(S'5_21'
S'15_31'
tp277
sS'1KP8-128_117-0434_0458_I_0089_0109_I'
p278
(S'5_21'
S'1_17'
tp279
sS'2EU9-001_002-0257_0276_A-0353_0369_A'
p280
(S'2_18'
S'21_37'
tp281
sS'3K40-011_000-0003_0026_B_0003_0026_A'
p282
(S'1_21'
S'27_47'
tp283
s.