(dp1
S'1WZD-005_004-0169_0182_A_0122_0151_A'
p2
(S'6_22'
S'1_17'
tp3
sS'1LKI-003_001-0155_0178_A_0076_0104_A'
p4
(S'4_22'
S'30_48'
tp5
sS'1QQF-006_005-1186_1199_A_1164_1181_A'
p6
(S'1_18'
S'1_18'
tp7
sS'1CSH-010_009-0345_0364_A_0328_0340_A'
p8
(S'2_21'
S'14_33'
tp9
sS'1HF8-004_005-0161_0181_A-0191_0222_A'
p10
(S'2_22'
S'32_52'
tp11
sS'3FX7-002_000-0008_0038_B_0008_0038_A'
p12
(S'6_22'
S'1_17'
tp13
sS'1MTY-029_012-0173_0203_D_0131_0161_B'
p14
(S'1_18'
S'45_62'
tp15
sS'3C18-008_002-0145_0167_B_0145_0167_A'
p16
(S'1_22'
S'2_23'
tp17
sS'1U7L-004_001-0264_0319_A_0127_0166_A'
p18
(S'2_22'
S'6_26'
tp19
sS'2D48-001_003-0041_0060_A-0109_0127_A'
p20
(S'5_22'
S'21_38'
tp21
sS'2RLD-000_003-0007_0032_A-0093_0114_A'
p22
(S'1_20'
S'29_48'
tp23
sS'1WA5-024_025-0223_0240_C-0258_0276_C'
p24
(S'4_22'
S'19_37'
tp25
sS'1I36-013_011-0200_0233_B_0154_0183_B'
p26
(S'1_22'
S'2_23'
tp27
sS'2QQY-000_002-0003_0023_A-0088_0111_A'
p28
(S'6_22'
S'22_38'
tp29
sS'2UXW-017_020-0328_0365_B-0448_0460_B'
p30
(S'1_22'
S'12_33'
tp31
sS'1Z72-001_000-0075_0103_A_0044_0062_A'
p32
(S'6_22'
S'20_36'
tp33
sS'2OU3-007_003-0129_0153_B_0129_0153_A'
p34
(S'4_22'
S'1_19'
tp35
sS'1KS8-003_002-0149_0167_A_0088_0106_A'
p36
(S'4_22'
S'20_38'
tp37
sS'3BYV-002_003-0377_0388_A-0392_0416_A'
p38
(S'1_21'
S'17_37'
tp39
sS'1KP8-060_058-0089_0109_E_0010_0030_E'
p40
(S'6_22'
S'22_38'
tp41
sS'1BGC-003_000-0144_0171_A_0012_0040_A'
p42
(S'1_22'
S'6_27'
tp43
sS'1RWH-003_004-0097_0113_A-0125_0145_A'
p44
(S'6_22'
S'1_17'
tp45
sS'1SU8-003_005-0139_0154_A-0205_0234_A'
p46
(S'1_22'
S'18_39'
tp47
sS'1N40-003_004-0154_0168_A-0176_0194_A'
p48
(S'4_22'
S'16_34'
tp49
sS'1WA5-034_033-0491_0505_C_0472_0488_C'
p50
(S'5_20'
S'1_16'
tp51
sS'3FAP-000_003-0112_0129_B-0183_0200_B'
p52
(S'3_20'
S'19_36'
tp53
sS'1C3C-019_020-0272_0295_B-0303_0333_B'
p54
(S'2_22'
S'1_21'
tp55
sS'2BT2-003_004-0107_0122_A-0134_0145_A'
p56
(S'6_21'
S'1_16'
tp57
sS'1U5P-004_003-1843_1871_A_1801_1838_A'
p58
(S'1_22'
S'2_23'
tp59
sS'1KWF-002_003-0110_0122_A-0151_0168_A'
p60
(S'1_18'
S'14_31'
tp61
sS'2E0A-007_011-0050_0073_B-0149_0180_B'
p62
(S'1_22'
S'31_52'
tp63
sS'1W07-021_020-0368_0399_B_0328_0364_B'
p64
(S'1_21'
S'18_38'
tp65
sS'1OJ7-014_015-0211_0233_B-0238_0251_B'
p66
(S'6_22'
S'1_17'
tp67
sS'2QNL-002_000-0092_0112_A_0003_0029_A'
p68
(S'4_22'
S'28_46'
tp69
sS'5CSM-007_005-0140_0171_B_0012_0035_B'
p70
(S'1_22'
p71
S'2_23'
p72
tp73
sS'1Q08-005_002-0079_0113_B_0079_0113_A'
p74
(S'1_22'
S'3_24'
tp75
sS'2SQC-014_013-0446_0459_A_0393_0410_A'
p76
(S'5_22'
S'1_18'
tp77
sS'2FBA-005_004-0217_0237_A_0182_0201_A'
p78
(S'5_22'
S'21_38'
tp79
sS'3BQO-001_002-0095_0111_A-0117_0135_A'
p80
(S'6_22'
S'18_34'
tp81
sS'2ILK-007_006-0087_0107_B_0060_0083_B'
p82
(S'4_22'
S'25_43'
tp83
sS'1QOY-001_002-0056_0101_A-0106_0159_A'
p84
(S'1_22'
S'66_87'
tp85
sS'1HUW-005_007-0072_0092_B-0156_0183_B'
p86
(S'6_22'
S'22_38'
tp87
sS'1O9R-016_018-0012_0042_E-0103_0131_E'
p88
(S'1_18'
S'15_32'
tp89
sS'1H12-002_003-0093_0107_A-0143_0160_A'
p90
(S'4_21'
S'16_33'
tp91
sS'1GKM-005_007-0197_0229_A-0280_0308_A'
p92
(S'2_22'
S'1_21'
tp93
sS'2GZ6-018_019-0190_0208_B-0237_0253_B'
p94
(S'6_22'
S'20_36'
tp95
sS'1XLY-005_008-0014_0044_B-0138_0162_B'
p96
(S'1_22'
S'33_54'
tp97
sS'2RCC-005_000-0190_0202_A_0071_0089_A'
p98
(S'6_22'
S'1_17'
tp99
sS'1HN0-007_006-0506_0523_A_0463_0482_A'
p100
(S'3_22'
S'1_20'
tp101
sS'1K7W-014_015-0115_0154_B-0171_0196_B'
p102
(S'1_22'
S'12_33'
tp103
sS'2O36-007_005-0249_0270_A_0158_0184_A'
p104
(S'1_22'
S'5_26'
tp105
sS'1GXM-004_003-0533_0545_A_0478_0498_A'
p106
(S'3_22'
S'1_20'
tp107
sS'3BT5-002_003-0120_0146_A-0152_0178_A'
p108
(S'1_22'
S'3_24'
tp109
sS'2AHF-007_006-0220_0237_A_0167_0184_A'
p110
(S'6_22'
S'1_17'
tp111
sS'1PI1-003_000-0154_0172_A_0032_0057_A'
p112
(S'2_22'
S'1_21'
tp113
sS'2GYQ-001_000-0043_0070_A_0011_0039_A'
p114
(S'3_22'
S'1_20'
tp115
sS'1EZ3-002_001-0111_0147_A_0069_0106_A'
p116
(S'4_22'
S'1_19'
tp117
sS'1R7J-002_005-0061_0091_A-0061_0091_B'
p118
(S'5_22'
S'32_49'
tp119
sS'1QQF-001_002-1041_1058_A-1076_1091_A'
p120
(S'5_22'
S'1_18'
tp121
sS'2FBA-001_000-0068_0084_A_0018_0036_A'
p122
(S'3_19'
S'20_36'
tp123
sS'1WZD-004_001-0122_0151_A_0039_0066_A'
p124
(S'3_22'
S'1_20'
tp125
sS'1H2V-004_003-0121_0137_A_0098_0118_A'
p126
(S'1_22'
S'1_22'
tp127
sS'2V2P-003_002-0123_0157_A_0092_0120_A'
p128
(S'6_22'
S'1_17'
tp129
sS'2SQC-020_019-0610_0629_A_0572_0584_A'
p130
(S'3_21'
S'15_33'
tp131
sS'1EER-002_001-0089_0112_A_0056_0082_A'
p132
(S'1_22'
S'6_27'
tp133
sS'3FX7-003_002-0045_0089_B_0008_0038_B'
p134
(S'6_22'
S'1_17'
tp135
sS'1J5W-002_008-0206_0226_A-0206_0225_B'
p136
(S'1_19'
S'23_41'
tp137
sS'1LKI-002_001-0109_0136_A_0076_0104_A'
p138
(S'1_22'
S'34_55'
tp139
sS'1W27-005_007-0263_0294_A-0351_0378_A'
p140
(S'1_22'
S'37_58'
tp141
sS'1HW1-010_013-0093_0119_B-0159_0181_B'
p142
(S'6_22'
S'1_17'
tp143
sS'2E0A-007_008-0050_0073_B-0083_0104_B'
p144
(S'6_22'
S'25_41'
tp145
sS'1BGC-001_002-0072_0093_A-0101_0125_A'
p146
(S'1_22'
S'2_23'
tp147
sS'1EZ3-000_001-0028_0063_A-0069_0106_A'
p148
(S'4_22'
S'37_55'
tp149
sS'1JM0-001_003-0027_0046_A-0027_0047_B'
p150
(S'1_21'
S'21_41'
tp151
sS'2QUP-001_000-0063_0089_A_0027_0060_A'
p152
(S'6_22'
S'1_17'
tp153
sS'1H2V-007_006-0189_0205_A_0163_0187_A'
p154
(S'3_19'
S'26_42'
tp155
sS'2UXW-023_024-0562_0591_B-0594_0623_B'
p156
(S'3_22'
S'1_20'
tp157
sS'2O5H-000_004-0012_0027_A-0006_0026_B'
p158
(S'3_19'
S'17_33'
tp159
sS'2GZ6-003_002-0114_0131_A_0073_0090_A'
p160
(S'6_22'
S'1_17'
tp161
sS'1WA5-041_040-0655_0671_C_0632_0652_C'
p162
(S'4_20'
S'22_38'
tp163
sS'1CLC-003_002-0296_0315_A_0243_0258_A'
p164
(S'4_22'
S'17_35'
tp165
sS'1OTK-009_007-0091_0113_B_0002_0026_B'
p166
(S'1_22'
S'4_25'
tp167
sS'2QIS-004_017-0140_0162_A-0165_0191_B'
p168
(S'1_22'
S'29_50'
tp169
sS'1S9U-004_000-0173_0192_A_0007_0022_A'
p170
(S'5_22'
S'17_34'
tp171
sS'3BT5-002_000-0120_0146_A_0031_0057_A'
p172
(S'2_22'
S'32_52'
tp173
sS'2ZWU-003_004-0171_0185_A-0193_0213_A'
p174
(S'2_21'
S'16_35'
tp175
sS'1U8V-028_027-0363_0388_C_0324_0350_C'
p176
(S'6_22'
S'1_17'
tp177
sS'1B9M-003_002-0080_0104_B_0019_0031_B'
p178
(S'1_19'
S'15_33'
tp179
sS'2FEF-001_002-0035_0054_A-0067_0093_A'
p180
(S'1_21'
S'27_47'
tp181
sS'1D9C-007_005-0264_0282_B_0204_0215_B'
p182
(S'4_22'
S'13_31'
tp183
sS'2SPC-001_005-0037_0074_A-0075_0103_B'
p184
(S'3_22'
S'1_20'
tp185
sS'1PI1-000_001-0032_0057_A-0090_0106_A'
p186
(S'2_22'
S'1_21'
tp187
sS'1QQF-009_008-1268_1285_A_1246_1258_A'
p188
(S'4_21'
S'14_31'
tp189
sS'2ILK-009_001-0133_0158_B_0060_0083_A'
p190
(S'1_17'
S'34_50'
tp191
sS'1NTY-003_000-1359_1382_A_1232_1264_A'
p192
(S'2_20'
S'39_57'
tp193
sS'2GZ6-006_005-0190_0208_A_0171_0187_A'
p194
(S'6_22'
S'18_34'
tp195
sS'1G9G-001_000-0054_0071_A_0007_0021_A'
p196
(S'4_21'
S'16_33'
tp197
sS'1CPQ-003_000-0104_0125_A_0003_0029_A'
p198
(S'1_22'
S'3_24'
tp199
sS'1HN0-007_008-0506_0523_A-0532_0548_A'
p200
(S'3_19'
S'19_35'
tp201
sS'2GYQ-005_008-0011_0039_B-0099_0131_B'
p202
(S'6_22'
S'30_46'
tp203
sS'2ZQM-000_001-0006_0048_A-0068_0111_A'
p204
(S'1_22'
S'57_78'
tp205
sS'1CLC-004_005-0318_0337_A-0360_0374_A'
p206
(S'6_22'
S'1_17'
tp207
sS'1LKI-000_002-0022_0048_A-0109_0136_A'
p208
(S'1_22'
S'32_53'
tp209
sS'1TQG-001_000-0034_0054_A_0002_0029_A'
p210
(S'2_22'
S'29_49'
tp211
sS'2OC5-003_000-0116_0141_A_0028_0058_A'
p212
(S'1_22'
S'11_32'
tp213
sS'2OOC-000_003-0023_0041_A-0084_0110_A'
p214
(S'4_22'
S'1_19'
tp215
sS'1MXR-013_012-0225_0254_B_0186_0221_B'
p216
(S'6_22'
S'1_17'
tp217
sS'3FX7-001_003-0045_0087_A-0045_0089_B'
p218
(S'2_22'
S'1_21'
tp219
sS'3BHQ-008_010-0055_0083_B-0105_0119_B'
p220
(S'6_22'
S'1_17'
tp221
sS'1W27-025_026-0455_0473_B-0494_0548_B'
p222
(S'1_22'
S'42_63'
tp223
sS'1ALU-002_001-0109_0129_A_0080_0104_A'
p224
(S'1_21'
S'26_46'
tp225
sS'1W27-000_005-0041_0053_A-0263_0294_A'
p226
(S'1_22'
S'21_42'
tp227
sS'2I2O-013_012-0098_0114_B_0074_0096_B'
p228
(S'5_21'
S'24_40'
tp229
sS'2FBA-003_002-0145_0164_A_0089_0107_A'
p230
(S'3_22'
S'20_39'
tp231
sS'1M5I-000_002-0133_0170_A-0207_0238_A'
p232
(S'6_22'
S'1_17'
tp233
sS'1EER-003_001-0138_0150_A_0056_0082_A'
p234
(S'1_22'
S'6_27'
tp235
sS'2FBA-008_007-0363_0383_A_0314_0330_A'
p236
(S'6_22'
S'1_17'
tp237
sS'3DHZ-006_001-0171_0184_A_0060_0091_A'
p238
(S'6_22'
S'1_17'
tp239
sS'1JNR-010_011-0540_0558_A-0565_0590_A'
p240
(S'1_22'
S'24_45'
tp241
sS'3BT5-000_001-0031_0057_A-0061_0088_A'
p242
(S'1_20'
S'36_55'
tp243
sS'1QOY-002_004-0106_0159_A-0206_0259_A'
p244
(S'1_22'
S'20_41'
tp245
sS'2AHF-000_011-0002_0020_A-0351_0366_A'
p246
(S'5_22'
S'1_18'
tp247
sS'1U5P-001_000-1695_1731_A_1664_1687_A'
p248
(S'1_22'
S'26_47'
tp249
sS'1YAR-191_189-0065_0094_j_0018_0029_j'
p250
(S'3_22'
S'13_32'
tp251
sS'1PI1-003_002-0154_0172_A_0121_0144_A'
p252
(S'4_22'
S'25_43'
tp253
sS'2D5B-000_010-0020_0039_A-0380_0397_A'
p254
(S'3_22'
S'1_20'
tp255
sS'2UXW-006_005-0412_0437_A_0377_0406_A'
p256
(S'2_22'
S'1_21'
tp257
sS'1SYY-006_002-0214_0244_A_0107_0134_A'
p258
(S'1_22'
S'4_25'
tp259
sS'1ALU-001_004-0080_0104_A-0156_0182_A'
p260
(S'4_22'
S'26_44'
tp261
sS'1WA5-026_025-0278_0298_C_0258_0276_C'
p262
(S'4_22'
S'1_19'
tp263
sS'1Z72-009_007-0175_0192_B_0075_0103_B'
p264
(S'6_22'
S'1_17'
tp265
sS'1WUI-005_012-0106_0131_B-0423_0454_B'
p266
(S'4_22'
S'27_45'
tp267
sS'2HSB-002_003-0074_0092_A-0100_0121_A'
p268
(S'6_22'
S'20_36'
tp269
sS'2UXW-009_010-0527_0554_A-0562_0591_A'
p270
(S'3_22'
S'29_48'
tp271
sS'1TQG-000_003-0002_0029_A-0082_0103_A'
p272
(S'2_22'
S'29_49'
tp273
sS'1XLY-007_006-0093_0129_B_0049_0071_B'
p274
(S'1_22'
S'2_23'
tp275
sS'1WOL-003_002-0100_0120_A_0067_0078_A'
p276
(S'2_22'
S'13_33'
tp277
sS'2INC-004_008-0167_0179_A-0251_0278_A'
p278
(S'6_22'
S'14_30'
tp279
sS'2IB0-000_001-0018_0046_A-0049_0076_A'
p280
(S'2_22'
S'1_21'
tp281
sS'1JIG-038_039-0091_0119_J-0122_0146_J'
p282
(S'1_21'
S'34_54'
tp283
sS'2PTR-021_020-0305_0328_B_0252_0281_B'
p284
(S'1_22'
S'8_29'
tp285
sS'2P0N-001_000-0046_0081_A_0019_0032_A'
p286
(S'6_22'
S'15_31'
tp287
sS'1JM0-001_000-0027_0046_A_0002_0024_A'
p288
(S'1_20'
S'24_43'
tp289
sS'1KWF-000_001-0052_0070_A-0094_0107_A'
p290
(S'6_22'
S'1_17'
tp291
sS'2E0A-003_002-0153_0180_A_0110_0143_A'
p292
(S'1_20'
S'1_20'
tp293
sS'3BJD-019_015-0233_0245_B_0137_0164_B'
p294
(S'3_22'
S'1_20'
tp295
sS'2WVX-003_002-0460_0481_A_0416_0427_A'
p296
(S'1_17'
S'18_34'
tp297
sS'1WUI-012_009-0423_0454_B_0252_0283_B'
p298
(S'4_22'
S'33_51'
tp299
sS'1NZE-003_000-0127_0147_A_0048_0068_A'
p300
(S'1_20'
S'23_42'
tp301
sS'1HF8-006_005-0227_0257_A_0191_0222_A'
p302
(S'2_22'
S'11_31'
tp303
sS'2P0N-001_002-0046_0081_A-0085_0115_A'
p304
(S'1_18'
S'50_67'
tp305
sS'2QGM-003_002-0220_0238_A_0194_0208_A'
p306
(S'4_22'
S'16_34'
tp307
sS'1HZ4-010_009-0209_0226_A_0188_0203_A'
p308
(S'3_20'
S'17_34'
tp309
sS'1VLS-003_000-0154_0177_A_0036_0073_A'
p310
(S'5_22'
S'39_56'
tp311
sS'2FEF-009_012-0012_0024_B-0097_0128_B'
p312
(S'1_22'
S'23_44'
tp313
sS'2AP3-002_001-0109_0151_A_0061_0098_A'
p314
(S'1_22'
S'8_29'
tp315
sS'1WA5-023_022-0197_0218_C_0161_0190_C'
p316
(S'1_19'
S'34_52'
tp317
sS'2RCC-012_009-0171_0202_B_0071_0094_B'
p318
(S'4_22'
S'1_19'
tp319
sS'1WA5-046_045-0752_0770_C_0733_0749_C'
p320
(S'4_21'
S'1_18'
tp321
sS'1YAR-073_071-0065_0094_O_0018_0029_O'
p322
(S'3_22'
S'13_32'
tp323
sS'2PVQ-004_003-0153_0168_A_0118_0138_A'
p324
(S'3_22'
S'1_20'
tp325
sS'1G9G-008_007-0495_0512_A_0432_0447_A'
p326
(S'6_22'
S'17_33'
tp327
sS'2NNU-000_001-0001_0021_A-0026_0049_A'
p328
(S'1_22'
S'23_44'
tp329
sS'1SYY-014_010-0195_0210_B_0072_0103_B'
p330
(S'6_22'
S'1_17'
tp331
sS'1XLY-006_005-0049_0071_B_0014_0044_B'
p332
(S'1_22'
S'33_54'
tp333
sS'3FP5-004_003-0094_0105_A_0073_0091_A'
p334
(S'1_20'
S'1_20'
tp335
sS'1H4R-001_002-0112_0128_A-0135_0150_A'
p336
(S'6_22'
S'1_17'
tp337
sS'1N7O-003_004-0263_0280_A-0291_0312_A'
p338
(S'5_22'
S'1_18'
tp339
sS'1Z0P-003_002-0039_0067_B_0003_0032_B'
p340
(S'5_22'
S'1_18'
tp341
s.